; Function Attrs: mustprogress uwtable
define void @_ZN7rocksdb4port7CondVarC2EPNS0_5MutexE(ptr noundef nonnull align 8 dereferenceable(56) initializes((48, 56)) %0, ptr noundef %1) unnamed_addr #0 align 2 {
  %3 = alloca %"class.std::__cxx11::basic_string", align 8
  %4 = getelementptr inbounds nuw i8, ptr %0, i64 48
  store ptr %1, ptr %4, align 8, !tbaa !14
  %5 = tail call i32 @pthread_cond_init(ptr noundef nonnull %0, ptr noundef null) #17
  switch i32 %5, label %6 [
    i32 110, label %_ZN7rocksdb4portL11PthreadCallEPKci.exit
    i32 16, label %_ZN7rocksdb4portL11PthreadCallEPKci.exit
    i32 0, label %_ZN7rocksdb4portL11PthreadCallEPKci.exit
  ]

6:                                                ; preds = %2
  %7 = load ptr, ptr @stderr, align 8, !tbaa !4
  call void @llvm.lifetime.start.p0(i64 32, ptr nonnull %3) #17
  call void @_ZN7rocksdb8errnoStrB5cxx11Ei(ptr dead_on_unwind nonnull writable sret(%"class.std::__cxx11::basic_string") align 8 %3, i32 noundef %5)
  %8 = load ptr, ptr %3, align 8, !tbaa !9
  %9 = call i32 (ptr, ptr, ...) @fprintf(ptr noundef %7, ptr noundef nonnull @.str.21, ptr noundef nonnull @.str.8, ptr noundef %8) #18
  call void @_ZNSt7__cxx1112basic_stringIcSt11char_traitsIcESaIcEED2Ev(ptr noundef nonnull align 8 dereferenceable(32) %3) #17
  call void @llvm.lifetime.end.p0(i64 32, ptr nonnull %3) #17
  call void @abort() #19
  unreachable

_ZN7rocksdb4portL11PthreadCallEPKci.exit:         ; preds = %2, %2, %2
  ret void
}